ccopy_reg
_reconstructor
p0
(ccfgrib.messages
FileIndex
p1
c__builtin__
object
p2
Ntp3
Rp4
(dp5
S'filestream'
p6
g0
(ccfgrib.messages
FileStream
p7
g2
Ntp8
Rp9
(dp10
S'path'
p11
S'/home/aelon/Documents/projects/wheather-api/wheather-api/interim201309.grib'
p12
sS'errors'
p13
Vwarn
p14
sS'message_class'
p15
ccfgrib.cfmessage
CfMessage
p16
sbsS'index_keys'
p17
(lp18
VDxInMetres
p19
aVDyInMetres
p20
aVJ
p21
aVK
p22
aVLaDInDegrees
p23
aVLatin1InDegrees
p24
aVLatin2InDegrees
p25
aVLoVInDegrees
p26
aVM
p27
aVN
p28
aVNV
p29
aVNx
p30
aVNy
p31
aVangleOfRotationInDegrees
p32
aVcentre
p33
aVcentreDescription
p34
aVcfName
p35
aVcfVarName
p36
aVdataDate
p37
aVdataTime
p38
aVdataType
p39
aVedition
p40
aVendStep
p41
aVgridDefinitionDescription
p42
aVgridType
p43
aViDirectionIncrementInDegrees
p44
aViScansNegatively
p45
aVjDirectionIncrementInDegrees
p46
aVjPointsAreConsecutive
p47
aVjScansPositively
p48
aVlatitudeOfFirstGridPointInDegrees
p49
aVlatitudeOfLastGridPointInDegrees
p50
aVlatitudeOfSouthernPoleInDegrees
p51
aVlevel
p52
aVlongitudeOfFirstGridPointInDegrees
p53
aVlongitudeOfLastGridPointInDegrees
p54
aVlongitudeOfSouthernPoleInDegrees
p55
aVmissingValue
p56
aVname
p57
aVnumber
p58
aVnumberOfPoints
p59
aVparamId
p60
aVpl
p61
aVshortName
p62
aVstep
p63
aVstepType
p64
aVstepUnits
p65
aVsubCentre
p66
aVtime
p67
aVtotalNumber
p68
aVtypeOfLevel
p69
aVunits
p70
asS'index_protocol_version'
p71
V1
p72
sS'offsets'
p73
(lp74
((Vundef
p75
g75
g75
g75
g75
g75
g75
g75
g75
g75
I0
I480
I241
g75
Vecmf
p76
VEuropean Centre for Medium-Range Weather Forecasts
p77
Vunknown
p78
Vu10
p79
I20130901
I0
Van
p80
I1
I0
VLatitude/Longitude Grid
p81
Vregular_ll
p82
F0.75
I0
F0.75
I0
I0
F90.0
F-90.0
g75
I0
F0.0
F359.25
g75
I9999
V10 metre U wind component
p83
I0
I115680
I165
g75
V10u
p84
F0.0
Vinstant
p85
I1
I0
I1377993600
I0
Vsurface
p86
Vm s**-1
p87
tp88
(lp89
I0
atp90
a((g75
g75
g75
g75
g75
g75
g75
g75
g75
g75
I0
I480
I241
g75
Vecmf
p91
VEuropean Centre for Medium-Range Weather Forecasts
p92
Vunknown
p93
Vswvl3
p94
I20130901
I0
Van
p95
I1
I0
VLatitude/Longitude Grid
p96
Vregular_ll
p97
F0.75
I0
F0.75
I0
I0
F90.0
F-90.0
g75
I28
F0.0
F359.25
g75
I9999
VVolumetric soil water layer 3
p98
I0
I115680
I41
g75
Vswvl3
p99
F0.0
Vinstant
p100
I1
I0
I1377993600
I0
VdepthBelowLandLayer
p101
Vm**3 m**-3
p102
tp103
(lp104
I231468
atp105
a((g75
g75
g75
g75
g75
g75
g75
g75
g75
g75
I0
I480
I241
g75
Vecmf
p106
VEuropean Centre for Medium-Range Weather Forecasts
p107
Vunknown
p108
Vu10
p109
I20130902
I0
Van
p110
I1
I0
VLatitude/Longitude Grid
p111
Vregular_ll
p112
F0.75
I0
F0.75
I0
I0
F90.0
F-90.0
g75
I0
F0.0
F359.25
g75
I9999
V10 metre U wind component
p113
I0
I115680
I165
g75
V10u
p114
F0.0
Vinstant
p115
I1
I0
I1378080000
I0
Vsurface
p116
Vm s**-1
p117
tp118
(lp119
I462936
atp120
a((g75
g75
g75
g75
g75
g75
g75
g75
g75
g75
I0
I480
I241
g75
Vecmf
p121
VEuropean Centre for Medium-Range Weather Forecasts
p122
Vunknown
p123
Vswvl3
p124
I20130902
I0
Van
p125
I1
I0
VLatitude/Longitude Grid
p126
Vregular_ll
p127
F0.75
I0
F0.75
I0
I0
F90.0
F-90.0
g75
I28
F0.0
F359.25
g75
I9999
VVolumetric soil water layer 3
p128
I0
I115680
I41
g75
Vswvl3
p129
F0.0
Vinstant
p130
I1
I0
I1378080000
I0
VdepthBelowLandLayer
p131
Vm**3 m**-3
p132
tp133
(lp134
I694404
atp135
a((g75
g75
g75
g75
g75
g75
g75
g75
g75
g75
I0
I480
I241
g75
Vecmf
p136
VEuropean Centre for Medium-Range Weather Forecasts
p137
Vunknown
p138
Vu10
p139
I20130903
I0
Van
p140
I1
I0
VLatitude/Longitude Grid
p141
Vregular_ll
p142
F0.75
I0
F0.75
I0
I0
F90.0
F-90.0
g75
I0
F0.0
F359.25
g75
I9999
V10 metre U wind component
p143
I0
I115680
I165
g75
V10u
p144
F0.0
Vinstant
p145
I1
I0
I1378166400
I0
Vsurface
p146
Vm s**-1
p147
tp148
(lp149
I925872
atp150
a((g75
g75
g75
g75
g75
g75
g75
g75
g75
g75
I0
I480
I241
g75
Vecmf
p151
VEuropean Centre for Medium-Range Weather Forecasts
p152
Vunknown
p153
Vswvl3
p154
I20130903
I0
Van
p155
I1
I0
VLatitude/Longitude Grid
p156
Vregular_ll
p157
F0.75
I0
F0.75
I0
I0
F90.0
F-90.0
g75
I28
F0.0
F359.25
g75
I9999
VVolumetric soil water layer 3
p158
I0
I115680
I41
g75
Vswvl3
p159
F0.0
Vinstant
p160
I1
I0
I1378166400
I0
VdepthBelowLandLayer
p161
Vm**3 m**-3
p162
tp163
(lp164
I1157340
atp165
a((g75
g75
g75
g75
g75
g75
g75
g75
g75
g75
I0
I480
I241
g75
Vecmf
p166
VEuropean Centre for Medium-Range Weather Forecasts
p167
Vunknown
p168
Vu10
p169
I20130904
I0
Van
p170
I1
I0
VLatitude/Longitude Grid
p171
Vregular_ll
p172
F0.75
I0
F0.75
I0
I0
F90.0
F-90.0
g75
I0
F0.0
F359.25
g75
I9999
V10 metre U wind component
p173
I0
I115680
I165
g75
V10u
p174
F0.0
Vinstant
p175
I1
I0
I1378252800
I0
Vsurface
p176
Vm s**-1
p177
tp178
(lp179
I1388808
atp180
a((g75
g75
g75
g75
g75
g75
g75
g75
g75
g75
I0
I480
I241
g75
Vecmf
p181
VEuropean Centre for Medium-Range Weather Forecasts
p182
Vunknown
p183
Vswvl3
p184
I20130904
I0
Van
p185
I1
I0
VLatitude/Longitude Grid
p186
Vregular_ll
p187
F0.75
I0
F0.75
I0
I0
F90.0
F-90.0
g75
I28
F0.0
F359.25
g75
I9999
VVolumetric soil water layer 3
p188
I0
I115680
I41
g75
Vswvl3
p189
F0.0
Vinstant
p190
I1
I0
I1378252800
I0
VdepthBelowLandLayer
p191
Vm**3 m**-3
p192
tp193
(lp194
I1620276
atp195
a((g75
g75
g75
g75
g75
g75
g75
g75
g75
g75
I0
I480
I241
g75
Vecmf
p196
VEuropean Centre for Medium-Range Weather Forecasts
p197
Vunknown
p198
Vu10
p199
I20130905
I0
Van
p200
I1
I0
VLatitude/Longitude Grid
p201
Vregular_ll
p202
F0.75
I0
F0.75
I0
I0
F90.0
F-90.0
g75
I0
F0.0
F359.25
g75
I9999
V10 metre U wind component
p203
I0
I115680
I165
g75
V10u
p204
F0.0
Vinstant
p205
I1
I0
I1378339200
I0
Vsurface
p206
Vm s**-1
p207
tp208
(lp209
I1851744
atp210
a((g75
g75
g75
g75
g75
g75
g75
g75
g75
g75
I0
I480
I241
g75
Vecmf
p211
VEuropean Centre for Medium-Range Weather Forecasts
p212
Vunknown
p213
Vswvl3
p214
I20130905
I0
Van
p215
I1
I0
VLatitude/Longitude Grid
p216
Vregular_ll
p217
F0.75
I0
F0.75
I0
I0
F90.0
F-90.0
g75
I28
F0.0
F359.25
g75
I9999
VVolumetric soil water layer 3
p218
I0
I115680
I41
g75
Vswvl3
p219
F0.0
Vinstant
p220
I1
I0
I1378339200
I0
VdepthBelowLandLayer
p221
Vm**3 m**-3
p222
tp223
(lp224
I2083212
atp225
a((g75
g75
g75
g75
g75
g75
g75
g75
g75
g75
I0
I480
I241
g75
Vecmf
p226
VEuropean Centre for Medium-Range Weather Forecasts
p227
Vunknown
p228
Vu10
p229
I20130906
I0
Van
p230
I1
I0
VLatitude/Longitude Grid
p231
Vregular_ll
p232
F0.75
I0
F0.75
I0
I0
F90.0
F-90.0
g75
I0
F0.0
F359.25
g75
I9999
V10 metre U wind component
p233
I0
I115680
I165
g75
V10u
p234
F0.0
Vinstant
p235
I1
I0
I1378425600
I0
Vsurface
p236
Vm s**-1
p237
tp238
(lp239
I2314680
atp240
a((g75
g75
g75
g75
g75
g75
g75
g75
g75
g75
I0
I480
I241
g75
Vecmf
p241
VEuropean Centre for Medium-Range Weather Forecasts
p242
Vunknown
p243
Vswvl3
p244
I20130906
I0
Van
p245
I1
I0
VLatitude/Longitude Grid
p246
Vregular_ll
p247
F0.75
I0
F0.75
I0
I0
F90.0
F-90.0
g75
I28
F0.0
F359.25
g75
I9999
VVolumetric soil water layer 3
p248
I0
I115680
I41
g75
Vswvl3
p249
F0.0
Vinstant
p250
I1
I0
I1378425600
I0
VdepthBelowLandLayer
p251
Vm**3 m**-3
p252
tp253
(lp254
I2546148
atp255
a((g75
g75
g75
g75
g75
g75
g75
g75
g75
g75
I0
I480
I241
g75
Vecmf
p256
VEuropean Centre for Medium-Range Weather Forecasts
p257
Vunknown
p258
Vu10
p259
I20130907
I0
Van
p260
I1
I0
VLatitude/Longitude Grid
p261
Vregular_ll
p262
F0.75
I0
F0.75
I0
I0
F90.0
F-90.0
g75
I0
F0.0
F359.25
g75
I9999
V10 metre U wind component
p263
I0
I115680
I165
g75
V10u
p264
F0.0
Vinstant
p265
I1
I0
I1378512000
I0
Vsurface
p266
Vm s**-1
p267
tp268
(lp269
I2777616
atp270
a((g75
g75
g75
g75
g75
g75
g75
g75
g75
g75
I0
I480
I241
g75
Vecmf
p271
VEuropean Centre for Medium-Range Weather Forecasts
p272
Vunknown
p273
Vswvl3
p274
I20130907
I0
Van
p275
I1
I0
VLatitude/Longitude Grid
p276
Vregular_ll
p277
F0.75
I0
F0.75
I0
I0
F90.0
F-90.0
g75
I28
F0.0
F359.25
g75
I9999
VVolumetric soil water layer 3
p278
I0
I115680
I41
g75
Vswvl3
p279
F0.0
Vinstant
p280
I1
I0
I1378512000
I0
VdepthBelowLandLayer
p281
Vm**3 m**-3
p282
tp283
(lp284
I3009084
atp285
a((g75
g75
g75
g75
g75
g75
g75
g75
g75
g75
I0
I480
I241
g75
Vecmf
p286
VEuropean Centre for Medium-Range Weather Forecasts
p287
Vunknown
p288
Vu10
p289
I20130908
I0
Van
p290
I1
I0
VLatitude/Longitude Grid
p291
Vregular_ll
p292
F0.75
I0
F0.75
I0
I0
F90.0
F-90.0
g75
I0
F0.0
F359.25
g75
I9999
V10 metre U wind component
p293
I0
I115680
I165
g75
V10u
p294
F0.0
Vinstant
p295
I1
I0
I1378598400
I0
Vsurface
p296
Vm s**-1
p297
tp298
(lp299
I3240552
atp300
a((g75
g75
g75
g75
g75
g75
g75
g75
g75
g75
I0
I480
I241
g75
Vecmf
p301
VEuropean Centre for Medium-Range Weather Forecasts
p302
Vunknown
p303
Vswvl3
p304
I20130908
I0
Van
p305
I1
I0
VLatitude/Longitude Grid
p306
Vregular_ll
p307
F0.75
I0
F0.75
I0
I0
F90.0
F-90.0
g75
I28
F0.0
F359.25
g75
I9999
VVolumetric soil water layer 3
p308
I0
I115680
I41
g75
Vswvl3
p309
F0.0
Vinstant
p310
I1
I0
I1378598400
I0
VdepthBelowLandLayer
p311
Vm**3 m**-3
p312
tp313
(lp314
I3472020
atp315
a((g75
g75
g75
g75
g75
g75
g75
g75
g75
g75
I0
I480
I241
g75
Vecmf
p316
VEuropean Centre for Medium-Range Weather Forecasts
p317
Vunknown
p318
Vu10
p319
I20130909
I0
Van
p320
I1
I0
VLatitude/Longitude Grid
p321
Vregular_ll
p322
F0.75
I0
F0.75
I0
I0
F90.0
F-90.0
g75
I0
F0.0
F359.25
g75
I9999
V10 metre U wind component
p323
I0
I115680
I165
g75
V10u
p324
F0.0
Vinstant
p325
I1
I0
I1378684800
I0
Vsurface
p326
Vm s**-1
p327
tp328
(lp329
I3703488
atp330
a((g75
g75
g75
g75
g75
g75
g75
g75
g75
g75
I0
I480
I241
g75
Vecmf
p331
VEuropean Centre for Medium-Range Weather Forecasts
p332
Vunknown
p333
Vswvl3
p334
I20130909
I0
Van
p335
I1
I0
VLatitude/Longitude Grid
p336
Vregular_ll
p337
F0.75
I0
F0.75
I0
I0
F90.0
F-90.0
g75
I28
F0.0
F359.25
g75
I9999
VVolumetric soil water layer 3
p338
I0
I115680
I41
g75
Vswvl3
p339
F0.0
Vinstant
p340
I1
I0
I1378684800
I0
VdepthBelowLandLayer
p341
Vm**3 m**-3
p342
tp343
(lp344
I3934956
atp345
a((g75
g75
g75
g75
g75
g75
g75
g75
g75
g75
I0
I480
I241
g75
Vecmf
p346
VEuropean Centre for Medium-Range Weather Forecasts
p347
Vunknown
p348
Vu10
p349
I20130910
I0
Van
p350
I1
I0
VLatitude/Longitude Grid
p351
Vregular_ll
p352
F0.75
I0
F0.75
I0
I0
F90.0
F-90.0
g75
I0
F0.0
F359.25
g75
I9999
V10 metre U wind component
p353
I0
I115680
I165
g75
V10u
p354
F0.0
Vinstant
p355
I1
I0
I1378771200
I0
Vsurface
p356
Vm s**-1
p357
tp358
(lp359
I4166424
atp360
a((g75
g75
g75
g75
g75
g75
g75
g75
g75
g75
I0
I480
I241
g75
Vecmf
p361
VEuropean Centre for Medium-Range Weather Forecasts
p362
Vunknown
p363
Vswvl3
p364
I20130910
I0
Van
p365
I1
I0
VLatitude/Longitude Grid
p366
Vregular_ll
p367
F0.75
I0
F0.75
I0
I0
F90.0
F-90.0
g75
I28
F0.0
F359.25
g75
I9999
VVolumetric soil water layer 3
p368
I0
I115680
I41
g75
Vswvl3
p369
F0.0
Vinstant
p370
I1
I0
I1378771200
I0
VdepthBelowLandLayer
p371
Vm**3 m**-3
p372
tp373
(lp374
I4397892
atp375
a((g75
g75
g75
g75
g75
g75
g75
g75
g75
g75
I0
I480
I241
g75
Vecmf
p376
VEuropean Centre for Medium-Range Weather Forecasts
p377
Vunknown
p378
Vu10
p379
I20130911
I0
Van
p380
I1
I0
VLatitude/Longitude Grid
p381
Vregular_ll
p382
F0.75
I0
F0.75
I0
I0
F90.0
F-90.0
g75
I0
F0.0
F359.25
g75
I9999
V10 metre U wind component
p383
I0
I115680
I165
g75
V10u
p384
F0.0
Vinstant
p385
I1
I0
I1378857600
I0
Vsurface
p386
Vm s**-1
p387
tp388
(lp389
I4629360
atp390
a((g75
g75
g75
g75
g75
g75
g75
g75
g75
g75
I0
I480
I241
g75
Vecmf
p391
VEuropean Centre for Medium-Range Weather Forecasts
p392
Vunknown
p393
Vswvl3
p394
I20130911
I0
Van
p395
I1
I0
VLatitude/Longitude Grid
p396
Vregular_ll
p397
F0.75
I0
F0.75
I0
I0
F90.0
F-90.0
g75
I28
F0.0
F359.25
g75
I9999
VVolumetric soil water layer 3
p398
I0
I115680
I41
g75
Vswvl3
p399
F0.0
Vinstant
p400
I1
I0
I1378857600
I0
VdepthBelowLandLayer
p401
Vm**3 m**-3
p402
tp403
(lp404
I4860828
atp405
a((g75
g75
g75
g75
g75
g75
g75
g75
g75
g75
I0
I480
I241
g75
Vecmf
p406
VEuropean Centre for Medium-Range Weather Forecasts
p407
Vunknown
p408
Vu10
p409
I20130912
I0
Van
p410
I1
I0
VLatitude/Longitude Grid
p411
Vregular_ll
p412
F0.75
I0
F0.75
I0
I0
F90.0
F-90.0
g75
I0
F0.0
F359.25
g75
I9999
V10 metre U wind component
p413
I0
I115680
I165
g75
V10u
p414
F0.0
Vinstant
p415
I1
I0
I1378944000
I0
Vsurface
p416
Vm s**-1
p417
tp418
(lp419
I5092296
atp420
a((g75
g75
g75
g75
g75
g75
g75
g75
g75
g75
I0
I480
I241
g75
Vecmf
p421
VEuropean Centre for Medium-Range Weather Forecasts
p422
Vunknown
p423
Vswvl3
p424
I20130912
I0
Van
p425
I1
I0
VLatitude/Longitude Grid
p426
Vregular_ll
p427
F0.75
I0
F0.75
I0
I0
F90.0
F-90.0
g75
I28
F0.0
F359.25
g75
I9999
VVolumetric soil water layer 3
p428
I0
I115680
I41
g75
Vswvl3
p429
F0.0
Vinstant
p430
I1
I0
I1378944000
I0
VdepthBelowLandLayer
p431
Vm**3 m**-3
p432
tp433
(lp434
I5323764
atp435
a((g75
g75
g75
g75
g75
g75
g75
g75
g75
g75
I0
I480
I241
g75
Vecmf
p436
VEuropean Centre for Medium-Range Weather Forecasts
p437
Vunknown
p438
Vu10
p439
I20130913
I0
Van
p440
I1
I0
VLatitude/Longitude Grid
p441
Vregular_ll
p442
F0.75
I0
F0.75
I0
I0
F90.0
F-90.0
g75
I0
F0.0
F359.25
g75
I9999
V10 metre U wind component
p443
I0
I115680
I165
g75
V10u
p444
F0.0
Vinstant
p445
I1
I0
I1379030400
I0
Vsurface
p446
Vm s**-1
p447
tp448
(lp449
I5555232
atp450
a((g75
g75
g75
g75
g75
g75
g75
g75
g75
g75
I0
I480
I241
g75
Vecmf
p451
VEuropean Centre for Medium-Range Weather Forecasts
p452
Vunknown
p453
Vswvl3
p454
I20130913
I0
Van
p455
I1
I0
VLatitude/Longitude Grid
p456
Vregular_ll
p457
F0.75
I0
F0.75
I0
I0
F90.0
F-90.0
g75
I28
F0.0
F359.25
g75
I9999
VVolumetric soil water layer 3
p458
I0
I115680
I41
g75
Vswvl3
p459
F0.0
Vinstant
p460
I1
I0
I1379030400
I0
VdepthBelowLandLayer
p461
Vm**3 m**-3
p462
tp463
(lp464
I5786700
atp465
a((g75
g75
g75
g75
g75
g75
g75
g75
g75
g75
I0
I480
I241
g75
Vecmf
p466
VEuropean Centre for Medium-Range Weather Forecasts
p467
Vunknown
p468
Vu10
p469
I20130914
I0
Van
p470
I1
I0
VLatitude/Longitude Grid
p471
Vregular_ll
p472
F0.75
I0
F0.75
I0
I0
F90.0
F-90.0
g75
I0
F0.0
F359.25
g75
I9999
V10 metre U wind component
p473
I0
I115680
I165
g75
V10u
p474
F0.0
Vinstant
p475
I1
I0
I1379116800
I0
Vsurface
p476
Vm s**-1
p477
tp478
(lp479
I6018168
atp480
a((g75
g75
g75
g75
g75
g75
g75
g75
g75
g75
I0
I480
I241
g75
Vecmf
p481
VEuropean Centre for Medium-Range Weather Forecasts
p482
Vunknown
p483
Vswvl3
p484
I20130914
I0
Van
p485
I1
I0
VLatitude/Longitude Grid
p486
Vregular_ll
p487
F0.75
I0
F0.75
I0
I0
F90.0
F-90.0
g75
I28
F0.0
F359.25
g75
I9999
VVolumetric soil water layer 3
p488
I0
I115680
I41
g75
Vswvl3
p489
F0.0
Vinstant
p490
I1
I0
I1379116800
I0
VdepthBelowLandLayer
p491
Vm**3 m**-3
p492
tp493
(lp494
I6249636
atp495
a((g75
g75
g75
g75
g75
g75
g75
g75
g75
g75
I0
I480
I241
g75
Vecmf
p496
VEuropean Centre for Medium-Range Weather Forecasts
p497
Vunknown
p498
Vu10
p499
I20130915
I0
Van
p500
I1
I0
VLatitude/Longitude Grid
p501
Vregular_ll
p502
F0.75
I0
F0.75
I0
I0
F90.0
F-90.0
g75
I0
F0.0
F359.25
g75
I9999
V10 metre U wind component
p503
I0
I115680
I165
g75
V10u
p504
F0.0
Vinstant
p505
I1
I0
I1379203200
I0
Vsurface
p506
Vm s**-1
p507
tp508
(lp509
I6481104
atp510
a((g75
g75
g75
g75
g75
g75
g75
g75
g75
g75
I0
I480
I241
g75
Vecmf
p511
VEuropean Centre for Medium-Range Weather Forecasts
p512
Vunknown
p513
Vswvl3
p514
I20130915
I0
Van
p515
I1
I0
VLatitude/Longitude Grid
p516
Vregular_ll
p517
F0.75
I0
F0.75
I0
I0
F90.0
F-90.0
g75
I28
F0.0
F359.25
g75
I9999
VVolumetric soil water layer 3
p518
I0
I115680
I41
g75
Vswvl3
p519
F0.0
Vinstant
p520
I1
I0
I1379203200
I0
VdepthBelowLandLayer
p521
Vm**3 m**-3
p522
tp523
(lp524
I6712572
atp525
a((g75
g75
g75
g75
g75
g75
g75
g75
g75
g75
I0
I480
I241
g75
Vecmf
p526
VEuropean Centre for Medium-Range Weather Forecasts
p527
Vunknown
p528
Vu10
p529
I20130916
I0
Van
p530
I1
I0
VLatitude/Longitude Grid
p531
Vregular_ll
p532
F0.75
I0
F0.75
I0
I0
F90.0
F-90.0
g75
I0
F0.0
F359.25
g75
I9999
V10 metre U wind component
p533
I0
I115680
I165
g75
V10u
p534
F0.0
Vinstant
p535
I1
I0
I1379289600
I0
Vsurface
p536
Vm s**-1
p537
tp538
(lp539
I6944040
atp540
a((g75
g75
g75
g75
g75
g75
g75
g75
g75
g75
I0
I480
I241
g75
Vecmf
p541
VEuropean Centre for Medium-Range Weather Forecasts
p542
Vunknown
p543
Vswvl3
p544
I20130916
I0
Van
p545
I1
I0
VLatitude/Longitude Grid
p546
Vregular_ll
p547
F0.75
I0
F0.75
I0
I0
F90.0
F-90.0
g75
I28
F0.0
F359.25
g75
I9999
VVolumetric soil water layer 3
p548
I0
I115680
I41
g75
Vswvl3
p549
F0.0
Vinstant
p550
I1
I0
I1379289600
I0
VdepthBelowLandLayer
p551
Vm**3 m**-3
p552
tp553
(lp554
I7175508
atp555
a((g75
g75
g75
g75
g75
g75
g75
g75
g75
g75
I0
I480
I241
g75
Vecmf
p556
VEuropean Centre for Medium-Range Weather Forecasts
p557
Vunknown
p558
Vu10
p559
I20130917
I0
Van
p560
I1
I0
VLatitude/Longitude Grid
p561
Vregular_ll
p562
F0.75
I0
F0.75
I0
I0
F90.0
F-90.0
g75
I0
F0.0
F359.25
g75
I9999
V10 metre U wind component
p563
I0
I115680
I165
g75
V10u
p564
F0.0
Vinstant
p565
I1
I0
I1379376000
I0
Vsurface
p566
Vm s**-1
p567
tp568
(lp569
I7406976
atp570
a((g75
g75
g75
g75
g75
g75
g75
g75
g75
g75
I0
I480
I241
g75
Vecmf
p571
VEuropean Centre for Medium-Range Weather Forecasts
p572
Vunknown
p573
Vswvl3
p574
I20130917
I0
Van
p575
I1
I0
VLatitude/Longitude Grid
p576
Vregular_ll
p577
F0.75
I0
F0.75
I0
I0
F90.0
F-90.0
g75
I28
F0.0
F359.25
g75
I9999
VVolumetric soil water layer 3
p578
I0
I115680
I41
g75
Vswvl3
p579
F0.0
Vinstant
p580
I1
I0
I1379376000
I0
VdepthBelowLandLayer
p581
Vm**3 m**-3
p582
tp583
(lp584
I7638444
atp585
a((g75
g75
g75
g75
g75
g75
g75
g75
g75
g75
I0
I480
I241
g75
Vecmf
p586
VEuropean Centre for Medium-Range Weather Forecasts
p587
Vunknown
p588
Vu10
p589
I20130918
I0
Van
p590
I1
I0
VLatitude/Longitude Grid
p591
Vregular_ll
p592
F0.75
I0
F0.75
I0
I0
F90.0
F-90.0
g75
I0
F0.0
F359.25
g75
I9999
V10 metre U wind component
p593
I0
I115680
I165
g75
V10u
p594
F0.0
Vinstant
p595
I1
I0
I1379462400
I0
Vsurface
p596
Vm s**-1
p597
tp598
(lp599
I7869912
atp600
a((g75
g75
g75
g75
g75
g75
g75
g75
g75
g75
I0
I480
I241
g75
Vecmf
p601
VEuropean Centre for Medium-Range Weather Forecasts
p602
Vunknown
p603
Vswvl3
p604
I20130918
I0
Van
p605
I1
I0
VLatitude/Longitude Grid
p606
Vregular_ll
p607
F0.75
I0
F0.75
I0
I0
F90.0
F-90.0
g75
I28
F0.0
F359.25
g75
I9999
VVolumetric soil water layer 3
p608
I0
I115680
I41
g75
Vswvl3
p609
F0.0
Vinstant
p610
I1
I0
I1379462400
I0
VdepthBelowLandLayer
p611
Vm**3 m**-3
p612
tp613
(lp614
I8101380
atp615
a((g75
g75
g75
g75
g75
g75
g75
g75
g75
g75
I0
I480
I241
g75
Vecmf
p616
VEuropean Centre for Medium-Range Weather Forecasts
p617
Vunknown
p618
Vu10
p619
I20130919
I0
Van
p620
I1
I0
VLatitude/Longitude Grid
p621
Vregular_ll
p622
F0.75
I0
F0.75
I0
I0
F90.0
F-90.0
g75
I0
F0.0
F359.25
g75
I9999
V10 metre U wind component
p623
I0
I115680
I165
g75
V10u
p624
F0.0
Vinstant
p625
I1
I0
I1379548800
I0
Vsurface
p626
Vm s**-1
p627
tp628
(lp629
I8332848
atp630
a((g75
g75
g75
g75
g75
g75
g75
g75
g75
g75
I0
I480
I241
g75
Vecmf
p631
VEuropean Centre for Medium-Range Weather Forecasts
p632
Vunknown
p633
Vswvl3
p634
I20130919
I0
Van
p635
I1
I0
VLatitude/Longitude Grid
p636
Vregular_ll
p637
F0.75
I0
F0.75
I0
I0
F90.0
F-90.0
g75
I28
F0.0
F359.25
g75
I9999
VVolumetric soil water layer 3
p638
I0
I115680
I41
g75
Vswvl3
p639
F0.0
Vinstant
p640
I1
I0
I1379548800
I0
VdepthBelowLandLayer
p641
Vm**3 m**-3
p642
tp643
(lp644
I8564316
atp645
a((g75
g75
g75
g75
g75
g75
g75
g75
g75
g75
I0
I480
I241
g75
Vecmf
p646
VEuropean Centre for Medium-Range Weather Forecasts
p647
Vunknown
p648
Vu10
p649
I20130920
I0
Van
p650
I1
I0
VLatitude/Longitude Grid
p651
Vregular_ll
p652
F0.75
I0
F0.75
I0
I0
F90.0
F-90.0
g75
I0
F0.0
F359.25
g75
I9999
V10 metre U wind component
p653
I0
I115680
I165
g75
V10u
p654
F0.0
Vinstant
p655
I1
I0
I1379635200
I0
Vsurface
p656
Vm s**-1
p657
tp658
(lp659
I8795784
atp660
a((g75
g75
g75
g75
g75
g75
g75
g75
g75
g75
I0
I480
I241
g75
Vecmf
p661
VEuropean Centre for Medium-Range Weather Forecasts
p662
Vunknown
p663
Vswvl3
p664
I20130920
I0
Van
p665
I1
I0
VLatitude/Longitude Grid
p666
Vregular_ll
p667
F0.75
I0
F0.75
I0
I0
F90.0
F-90.0
g75
I28
F0.0
F359.25
g75
I9999
VVolumetric soil water layer 3
p668
I0
I115680
I41
g75
Vswvl3
p669
F0.0
Vinstant
p670
I1
I0
I1379635200
I0
VdepthBelowLandLayer
p671
Vm**3 m**-3
p672
tp673
(lp674
I9027252
atp675
a((g75
g75
g75
g75
g75
g75
g75
g75
g75
g75
I0
I480
I241
g75
Vecmf
p676
VEuropean Centre for Medium-Range Weather Forecasts
p677
Vunknown
p678
Vu10
p679
I20130921
I0
Van
p680
I1
I0
VLatitude/Longitude Grid
p681
Vregular_ll
p682
F0.75
I0
F0.75
I0
I0
F90.0
F-90.0
g75
I0
F0.0
F359.25
g75
I9999
V10 metre U wind component
p683
I0
I115680
I165
g75
V10u
p684
F0.0
Vinstant
p685
I1
I0
I1379721600
I0
Vsurface
p686
Vm s**-1
p687
tp688
(lp689
I9258720
atp690
a((g75
g75
g75
g75
g75
g75
g75
g75
g75
g75
I0
I480
I241
g75
Vecmf
p691
VEuropean Centre for Medium-Range Weather Forecasts
p692
Vunknown
p693
Vswvl3
p694
I20130921
I0
Van
p695
I1
I0
VLatitude/Longitude Grid
p696
Vregular_ll
p697
F0.75
I0
F0.75
I0
I0
F90.0
F-90.0
g75
I28
F0.0
F359.25
g75
I9999
VVolumetric soil water layer 3
p698
I0
I115680
I41
g75
Vswvl3
p699
F0.0
Vinstant
p700
I1
I0
I1379721600
I0
VdepthBelowLandLayer
p701
Vm**3 m**-3
p702
tp703
(lp704
I9490188
atp705
a((g75
g75
g75
g75
g75
g75
g75
g75
g75
g75
I0
I480
I241
g75
Vecmf
p706
VEuropean Centre for Medium-Range Weather Forecasts
p707
Vunknown
p708
Vu10
p709
I20130922
I0
Van
p710
I1
I0
VLatitude/Longitude Grid
p711
Vregular_ll
p712
F0.75
I0
F0.75
I0
I0
F90.0
F-90.0
g75
I0
F0.0
F359.25
g75
I9999
V10 metre U wind component
p713
I0
I115680
I165
g75
V10u
p714
F0.0
Vinstant
p715
I1
I0
I1379808000
I0
Vsurface
p716
Vm s**-1
p717
tp718
(lp719
I9721656
atp720
a((g75
g75
g75
g75
g75
g75
g75
g75
g75
g75
I0
I480
I241
g75
Vecmf
p721
VEuropean Centre for Medium-Range Weather Forecasts
p722
Vunknown
p723
Vswvl3
p724
I20130922
I0
Van
p725
I1
I0
VLatitude/Longitude Grid
p726
Vregular_ll
p727
F0.75
I0
F0.75
I0
I0
F90.0
F-90.0
g75
I28
F0.0
F359.25
g75
I9999
VVolumetric soil water layer 3
p728
I0
I115680
I41
g75
Vswvl3
p729
F0.0
Vinstant
p730
I1
I0
I1379808000
I0
VdepthBelowLandLayer
p731
Vm**3 m**-3
p732
tp733
(lp734
I9953124
atp735
a((g75
g75
g75
g75
g75
g75
g75
g75
g75
g75
I0
I480
I241
g75
Vecmf
p736
VEuropean Centre for Medium-Range Weather Forecasts
p737
Vunknown
p738
Vu10
p739
I20130923
I0
Van
p740
I1
I0
VLatitude/Longitude Grid
p741
Vregular_ll
p742
F0.75
I0
F0.75
I0
I0
F90.0
F-90.0
g75
I0
F0.0
F359.25
g75
I9999
V10 metre U wind component
p743
I0
I115680
I165
g75
V10u
p744
F0.0
Vinstant
p745
I1
I0
I1379894400
I0
Vsurface
p746
Vm s**-1
p747
tp748
(lp749
I10184592
atp750
a((g75
g75
g75
g75
g75
g75
g75
g75
g75
g75
I0
I480
I241
g75
Vecmf
p751
VEuropean Centre for Medium-Range Weather Forecasts
p752
Vunknown
p753
Vswvl3
p754
I20130923
I0
Van
p755
I1
I0
VLatitude/Longitude Grid
p756
Vregular_ll
p757
F0.75
I0
F0.75
I0
I0
F90.0
F-90.0
g75
I28
F0.0
F359.25
g75
I9999
VVolumetric soil water layer 3
p758
I0
I115680
I41
g75
Vswvl3
p759
F0.0
Vinstant
p760
I1
I0
I1379894400
I0
VdepthBelowLandLayer
p761
Vm**3 m**-3
p762
tp763
(lp764
I10416060
atp765
a((g75
g75
g75
g75
g75
g75
g75
g75
g75
g75
I0
I480
I241
g75
Vecmf
p766
VEuropean Centre for Medium-Range Weather Forecasts
p767
Vunknown
p768
Vu10
p769
I20130924
I0
Van
p770
I1
I0
VLatitude/Longitude Grid
p771
Vregular_ll
p772
F0.75
I0
F0.75
I0
I0
F90.0
F-90.0
g75
I0
F0.0
F359.25
g75
I9999
V10 metre U wind component
p773
I0
I115680
I165
g75
V10u
p774
F0.0
Vinstant
p775
I1
I0
I1379980800
I0
Vsurface
p776
Vm s**-1
p777
tp778
(lp779
I10647528
atp780
a((g75
g75
g75
g75
g75
g75
g75
g75
g75
g75
I0
I480
I241
g75
Vecmf
p781
VEuropean Centre for Medium-Range Weather Forecasts
p782
Vunknown
p783
Vswvl3
p784
I20130924
I0
Van
p785
I1
I0
VLatitude/Longitude Grid
p786
Vregular_ll
p787
F0.75
I0
F0.75
I0
I0
F90.0
F-90.0
g75
I28
F0.0
F359.25
g75
I9999
VVolumetric soil water layer 3
p788
I0
I115680
I41
g75
Vswvl3
p789
F0.0
Vinstant
p790
I1
I0
I1379980800
I0
VdepthBelowLandLayer
p791
Vm**3 m**-3
p792
tp793
(lp794
I10878996
atp795
a((g75
g75
g75
g75
g75
g75
g75
g75
g75
g75
I0
I480
I241
g75
Vecmf
p796
VEuropean Centre for Medium-Range Weather Forecasts
p797
Vunknown
p798
Vu10
p799
I20130925
I0
Van
p800
I1
I0
VLatitude/Longitude Grid
p801
Vregular_ll
p802
F0.75
I0
F0.75
I0
I0
F90.0
F-90.0
g75
I0
F0.0
F359.25
g75
I9999
V10 metre U wind component
p803
I0
I115680
I165
g75
V10u
p804
F0.0
Vinstant
p805
I1
I0
I1380067200
I0
Vsurface
p806
Vm s**-1
p807
tp808
(lp809
I11110464
atp810
a((g75
g75
g75
g75
g75
g75
g75
g75
g75
g75
I0
I480
I241
g75
Vecmf
p811
VEuropean Centre for Medium-Range Weather Forecasts
p812
Vunknown
p813
Vswvl3
p814
I20130925
I0
Van
p815
I1
I0
VLatitude/Longitude Grid
p816
Vregular_ll
p817
F0.75
I0
F0.75
I0
I0
F90.0
F-90.0
g75
I28
F0.0
F359.25
g75
I9999
VVolumetric soil water layer 3
p818
I0
I115680
I41
g75
Vswvl3
p819
F0.0
Vinstant
p820
I1
I0
I1380067200
I0
VdepthBelowLandLayer
p821
Vm**3 m**-3
p822
tp823
(lp824
I11341932
atp825
a((g75
g75
g75
g75
g75
g75
g75
g75
g75
g75
I0
I480
I241
g75
Vecmf
p826
VEuropean Centre for Medium-Range Weather Forecasts
p827
Vunknown
p828
Vu10
p829
I20130926
I0
Van
p830
I1
I0
VLatitude/Longitude Grid
p831
Vregular_ll
p832
F0.75
I0
F0.75
I0
I0
F90.0
F-90.0
g75
I0
F0.0
F359.25
g75
I9999
V10 metre U wind component
p833
I0
I115680
I165
g75
V10u
p834
F0.0
Vinstant
p835
I1
I0
I1380153600
I0
Vsurface
p836
Vm s**-1
p837
tp838
(lp839
I11573400
atp840
a((g75
g75
g75
g75
g75
g75
g75
g75
g75
g75
I0
I480
I241
g75
Vecmf
p841
VEuropean Centre for Medium-Range Weather Forecasts
p842
Vunknown
p843
Vswvl3
p844
I20130926
I0
Van
p845
I1
I0
VLatitude/Longitude Grid
p846
Vregular_ll
p847
F0.75
I0
F0.75
I0
I0
F90.0
F-90.0
g75
I28
F0.0
F359.25
g75
I9999
VVolumetric soil water layer 3
p848
I0
I115680
I41
g75
Vswvl3
p849
F0.0
Vinstant
p850
I1
I0
I1380153600
I0
VdepthBelowLandLayer
p851
Vm**3 m**-3
p852
tp853
(lp854
I11804868
atp855
a((g75
g75
g75
g75
g75
g75
g75
g75
g75
g75
I0
I480
I241
g75
Vecmf
p856
VEuropean Centre for Medium-Range Weather Forecasts
p857
Vunknown
p858
Vu10
p859
I20130927
I0
Van
p860
I1
I0
VLatitude/Longitude Grid
p861
Vregular_ll
p862
F0.75
I0
F0.75
I0
I0
F90.0
F-90.0
g75
I0
F0.0
F359.25
g75
I9999
V10 metre U wind component
p863
I0
I115680
I165
g75
V10u
p864
F0.0
Vinstant
p865
I1
I0
I1380240000
I0
Vsurface
p866
Vm s**-1
p867
tp868
(lp869
I12036336
atp870
a((g75
g75
g75
g75
g75
g75
g75
g75
g75
g75
I0
I480
I241
g75
Vecmf
p871
VEuropean Centre for Medium-Range Weather Forecasts
p872
Vunknown
p873
Vswvl3
p874
I20130927
I0
Van
p875
I1
I0
VLatitude/Longitude Grid
p876
Vregular_ll
p877
F0.75
I0
F0.75
I0
I0
F90.0
F-90.0
g75
I28
F0.0
F359.25
g75
I9999
VVolumetric soil water layer 3
p878
I0
I115680
I41
g75
Vswvl3
p879
F0.0
Vinstant
p880
I1
I0
I1380240000
I0
VdepthBelowLandLayer
p881
Vm**3 m**-3
p882
tp883
(lp884
I12267804
atp885
a((g75
g75
g75
g75
g75
g75
g75
g75
g75
g75
I0
I480
I241
g75
Vecmf
p886
VEuropean Centre for Medium-Range Weather Forecasts
p887
Vunknown
p888
Vu10
p889
I20130928
I0
Van
p890
I1
I0
VLatitude/Longitude Grid
p891
Vregular_ll
p892
F0.75
I0
F0.75
I0
I0
F90.0
F-90.0
g75
I0
F0.0
F359.25
g75
I9999
V10 metre U wind component
p893
I0
I115680
I165
g75
V10u
p894
F0.0
Vinstant
p895
I1
I0
I1380326400
I0
Vsurface
p896
Vm s**-1
p897
tp898
(lp899
I12499272
atp900
a((g75
g75
g75
g75
g75
g75
g75
g75
g75
g75
I0
I480
I241
g75
Vecmf
p901
VEuropean Centre for Medium-Range Weather Forecasts
p902
Vunknown
p903
Vswvl3
p904
I20130928
I0
Van
p905
I1
I0
VLatitude/Longitude Grid
p906
Vregular_ll
p907
F0.75
I0
F0.75
I0
I0
F90.0
F-90.0
g75
I28
F0.0
F359.25
g75
I9999
VVolumetric soil water layer 3
p908
I0
I115680
I41
g75
Vswvl3
p909
F0.0
Vinstant
p910
I1
I0
I1380326400
I0
VdepthBelowLandLayer
p911
Vm**3 m**-3
p912
tp913
(lp914
I12730740
atp915
a((g75
g75
g75
g75
g75
g75
g75
g75
g75
g75
I0
I480
I241
g75
Vecmf
p916
VEuropean Centre for Medium-Range Weather Forecasts
p917
Vunknown
p918
Vu10
p919
I20130929
I0
Van
p920
I1
I0
VLatitude/Longitude Grid
p921
Vregular_ll
p922
F0.75
I0
F0.75
I0
I0
F90.0
F-90.0
g75
I0
F0.0
F359.25
g75
I9999
V10 metre U wind component
p923
I0
I115680
I165
g75
V10u
p924
F0.0
Vinstant
p925
I1
I0
I1380412800
I0
Vsurface
p926
Vm s**-1
p927
tp928
(lp929
I12962208
atp930
a((g75
g75
g75
g75
g75
g75
g75
g75
g75
g75
I0
I480
I241
g75
Vecmf
p931
VEuropean Centre for Medium-Range Weather Forecasts
p932
Vunknown
p933
Vswvl3
p934
I20130929
I0
Van
p935
I1
I0
VLatitude/Longitude Grid
p936
Vregular_ll
p937
F0.75
I0
F0.75
I0
I0
F90.0
F-90.0
g75
I28
F0.0
F359.25
g75
I9999
VVolumetric soil water layer 3
p938
I0
I115680
I41
g75
Vswvl3
p939
F0.0
Vinstant
p940
I1
I0
I1380412800
I0
VdepthBelowLandLayer
p941
Vm**3 m**-3
p942
tp943
(lp944
I13193676
atp945
a((g75
g75
g75
g75
g75
g75
g75
g75
g75
g75
I0
I480
I241
g75
Vecmf
p946
VEuropean Centre for Medium-Range Weather Forecasts
p947
Vunknown
p948
Vu10
p949
I20130930
I0
Van
p950
I1
I0
VLatitude/Longitude Grid
p951
Vregular_ll
p952
F0.75
I0
F0.75
I0
I0
F90.0
F-90.0
g75
I0
F0.0
F359.25
g75
I9999
V10 metre U wind component
p953
I0
I115680
I165
g75
V10u
p954
F0.0
Vinstant
p955
I1
I0
I1380499200
I0
Vsurface
p956
Vm s**-1
p957
tp958
(lp959
I13425144
atp960
a((g75
g75
g75
g75
g75
g75
g75
g75
g75
g75
I0
I480
I241
g75
Vecmf
p961
VEuropean Centre for Medium-Range Weather Forecasts
p962
Vunknown
p963
Vswvl3
p964
I20130930
I0
Van
p965
I1
I0
VLatitude/Longitude Grid
p966
Vregular_ll
p967
F0.75
I0
F0.75
I0
I0
F90.0
F-90.0
g75
I28
F0.0
F359.25
g75
I9999
VVolumetric soil water layer 3
p968
I0
I115680
I41
g75
Vswvl3
p969
F0.0
Vinstant
p970
I1
I0
I1380499200
I0
VdepthBelowLandLayer
p971
Vm**3 m**-3
p972
tp973
(lp974
I13656612
atp975
asb.